target datalayout = "e-m:e-p270:32:32-p271:32:32-p272:64:64-i64:64-i128:128-f80:128-n8:16:32:64-S128"
target triple = "x86_64-pc-linux-gnu"

%struct.index_state = type { ptr, i32, i32, i32, i32, ptr, ptr, ptr, %struct.cache_time, i8, i32, %struct.hashmap, %struct.hashmap, %struct.object_id, ptr, ptr, ptr, ptr, ptr, ptr, ptr }
%struct.cache_time = type { i32, i32 }
%struct.hashmap = type { ptr, ptr, ptr, i32, i32, i32, i32, i8 }
%struct.object_id = type { [32 x i8], i32 }
%struct.cache_entry = type { %struct.hashmap_entry, %struct.stat_data, i32, i32, i32, i32, i32, %struct.object_id, [0 x i8] }
%struct.hashmap_entry = type { ptr, i32 }
%struct.stat_data = type { %struct.cache_time, %struct.cache_time, i32, i32, i32, i32, i32 }
%struct.oid_array = type { ptr, i64, i64, i32 }

@the_repository = external global ptr, align 8

; Function Attrs: nounwind uwtable
define dso_local void @prefetch_cache_entries(ptr noundef %0, ptr noundef %1) #0 {
  %3 = alloca ptr, align 8
  %4 = alloca ptr, align 8
  %5 = alloca i32, align 4
  %6 = alloca %struct.oid_array, align 8
  %7 = alloca ptr, align 8
  %8 = alloca i32, align 4
  store ptr %0, ptr %3, align 8, !tbaa !4
  store ptr %1, ptr %4, align 8, !tbaa !64
  call void @llvm.lifetime.start.p0(i64 4, ptr %5) #12
  call void @llvm.lifetime.start.p0(i64 32, ptr %6) #12
  call void @llvm.memset.p0.i64(ptr align 8 %6, i8 0, i64 32, i1 false)
  store i32 0, ptr %5, align 4, !tbaa !9
  br label %9

9:                                                ; preds = %47, %2
  %10 = load i32, ptr %5, align 4, !tbaa !9
  %11 = load ptr, ptr %3, align 8, !tbaa !4
  %12 = getelementptr inbounds nuw %struct.index_state, ptr %11, i32 0, i32 2
  %13 = load i32, ptr %12, align 4, !tbaa !34
  %14 = icmp ult i32 %10, %13
  br i1 %14, label %15, label %50

15:                                               ; preds = %9
  call void @llvm.lifetime.start.p0(i64 8, ptr %7) #12
  %16 = load ptr, ptr %3, align 8, !tbaa !4
  %17 = getelementptr inbounds nuw %struct.index_state, ptr %16, i32 0, i32 0
  %18 = load ptr, ptr %17, align 8, !tbaa !13
  %19 = load i32, ptr %5, align 4, !tbaa !9
  %20 = sext i32 %19 to i64
  %21 = getelementptr inbounds ptr, ptr %18, i64 %20
  %22 = load ptr, ptr %21, align 8, !tbaa !29
  store ptr %22, ptr %7, align 8, !tbaa !29
  %23 = load ptr, ptr %7, align 8, !tbaa !29
  %24 = getelementptr inbounds nuw %struct.cache_entry, ptr %23, i32 0, i32 2
  %25 = load i32, ptr %24, align 4, !tbaa !9
  %26 = and i32 %25, 61440
  %27 = icmp eq i32 %26, 57344
  br i1 %27, label %33, label %28

28:                                               ; preds = %15
  %29 = load ptr, ptr %4, align 8, !tbaa !64
  %30 = load ptr, ptr %7, align 8, !tbaa !29
  %31 = call i32 %29(ptr noundef %30)
  %32 = icmp ne i32 %31, 0
  br i1 %32, label %34, label %33

33:                                               ; preds = %28, %15
  store i32 4, ptr %8, align 4
  br label %44

34:                                               ; preds = %28
  %35 = load ptr, ptr @the_repository, align 8, !tbaa !48
  %36 = load ptr, ptr %7, align 8, !tbaa !29
  %37 = getelementptr inbounds nuw %struct.cache_entry, ptr %36, i32 0, i32 7
  %38 = call i32 @oid_object_info_extended(ptr noundef %35, ptr noundef %37, ptr noundef null, i32 noundef 24)
  %39 = icmp ne i32 %38, 0
  br i1 %39, label %41, label %40

40:                                               ; preds = %34
  store i32 4, ptr %8, align 4
  br label %44

41:                                               ; preds = %34
  %42 = load ptr, ptr %7, align 8, !tbaa !29
  %43 = getelementptr inbounds nuw %struct.cache_entry, ptr %42, i32 0, i32 7
  call void @oid_array_append(ptr noundef %6, ptr noundef %43)
  store i32 0, ptr %8, align 4
  br label %44

44:                                               ; preds = %41, %40, %33
  call void @llvm.lifetime.end.p0(i64 8, ptr %7) #12
  %45 = load i32, ptr %8, align 4
  switch i32 %45, label %57 [
    i32 0, label %46
    i32 4, label %47
  ]

46:                                               ; preds = %44
  br label %47

47:                                               ; preds = %46, %44
  %48 = load i32, ptr %5, align 4, !tbaa !9
  %49 = add nsw i32 %48, 1
  store i32 %49, ptr %5, align 4, !tbaa !9
  br label %9, !llvm.loop !208

50:                                               ; preds = %9
  %51 = load ptr, ptr @the_repository, align 8, !tbaa !48
  %52 = getelementptr inbounds nuw %struct.oid_array, ptr %6, i32 0, i32 0
  %53 = load ptr, ptr %52, align 8, !tbaa !209
  %54 = getelementptr inbounds nuw %struct.oid_array, ptr %6, i32 0, i32 1
  %55 = load i64, ptr %54, align 8, !tbaa !211
  %56 = trunc i64 %55 to i32
  call void @promisor_remote_get_direct(ptr noundef %51, ptr noundef %53, i32 noundef %56)
  call void @oid_array_clear(ptr noundef %6)
  call void @llvm.lifetime.end.p0(i64 32, ptr %6) #12
  call void @llvm.lifetime.end.p0(i64 4, ptr %5) #12
  ret void

57:                                               ; preds = %44
  unreachable
}