; Function Attrs: nounwind uwtable
define dso_local void @prefetch_cache_entries(ptr noundef readonly captures(none) %0, ptr noundef readonly captures(none) %1) local_unnamed_addr #0 {
  %3 = alloca %struct.oid_array, align 8
  call void @llvm.lifetime.start.p0(i64 32, ptr nonnull %3) #30
  call void @llvm.memset.p0.i64(ptr noundef nonnull align 8 dereferenceable(32) %3, i8 0, i64 32, i1 false)
  %4 = getelementptr inbounds nuw i8, ptr %0, i64 12
  %5 = load i32, ptr %4, align 4, !tbaa !34
  %.not11 = icmp eq i32 %5, 0
  br i1 %.not11, label %._crit_edge, label %.lr.ph

.lr.ph:                                           ; preds = %2, %20
  %indvars.iv = phi i64 [ %indvars.iv.next, %20 ], [ 0, %2 ]
  %6 = load ptr, ptr %0, align 8, !tbaa !4
  %7 = getelementptr inbounds nuw ptr, ptr %6, i64 %indvars.iv
  %8 = load ptr, ptr %7, align 8, !tbaa !25
  %9 = getelementptr inbounds nuw i8, ptr %8, i64 52
  %10 = load i32, ptr %9, align 4, !tbaa !32
  %11 = and i32 %10, 61440
  %12 = icmp eq i32 %11, 57344
  br i1 %12, label %20, label %13

13:                                               ; preds = %.lr.ph
  %14 = call i32 %1(ptr noundef nonnull %8) #30
  %.not = icmp eq i32 %14, 0
  br i1 %.not, label %20, label %15

15:                                               ; preds = %13
  %16 = load ptr, ptr @the_repository, align 8, !tbaa !52
  %17 = getelementptr inbounds nuw i8, ptr %8, i64 72
  %18 = call i32 @oid_object_info_extended(ptr noundef %16, ptr noundef nonnull %17, ptr noundef null, i32 noundef 24) #30
  %.not9 = icmp eq i32 %18, 0
  br i1 %.not9, label %20, label %19

19:                                               ; preds = %15
  call void @oid_array_append(ptr noundef nonnull %3, ptr noundef nonnull %17) #30
  br label %20

20:                                               ; preds = %15, %.lr.ph, %13, %19
  %indvars.iv.next = add nuw nsw i64 %indvars.iv, 1
  %21 = load i32, ptr %4, align 4, !tbaa !34
  %22 = zext i32 %21 to i64
  %23 = icmp samesign ult i64 %indvars.iv.next, %22
  br i1 %23, label %.lr.ph, label %._crit_edge.loopexit, !llvm.loop !176

._crit_edge.loopexit:                             ; preds = %20
  %.pre = load ptr, ptr %3, align 8, !tbaa !177
  %.phi.trans.insert = getelementptr inbounds nuw i8, ptr %3, i64 8
  %.pre13 = load i64, ptr %.phi.trans.insert, align 8, !tbaa !179
  %24 = trunc i64 %.pre13 to i32
  br label %._crit_edge

._crit_edge:                                      ; preds = %._crit_edge.loopexit, %2
  %25 = phi i32 [ %24, %._crit_edge.loopexit ], [ 0, %2 ]
  %26 = phi ptr [ %.pre, %._crit_edge.loopexit ], [ null, %2 ]
  %27 = load ptr, ptr @the_repository, align 8, !tbaa !52
  call void @promisor_remote_get_direct(ptr noundef %27, ptr noundef %26, i32 noundef %25) #30
  call void @oid_array_clear(ptr noundef nonnull %3) #30
  call void @llvm.lifetime.end.p0(i64 32, ptr nonnull %3) #30
  ret void
}